; Function Attrs: mustprogress uwtable
define internal void @_ZN8facebook5velox9functions6window12_GLOBAL__N_112RankFunctionILNS2_8RankTypeE1EiE5applyERKN5boost13intrusive_ptrINS0_6BufferEEESC_SC_SC_RKNS0_17SelectivityVectorEiRKSt10shared_ptrINS0_10BaseVectorEE(ptr nocapture noundef nonnull align 8 dereferenceable(100) %this, ptr nocapture noundef nonnull readonly align 8 dereferenceable(8) %peerGroupStarts, ptr nocapture nonnull readnone align 8 %0, ptr nocapture nonnull readnone align 8 %1, ptr nocapture nonnull readnone align 8 %2, ptr nocapture nonnull readnone align 8 %validRows, i32 noundef %resultOffset, ptr nocapture noundef nonnull readonly align 8 dereferenceable(16) %result) unnamed_addr #0 align 2 {
entry:
  %3 = load ptr, ptr %peerGroupStarts, align 8
  %size_.i = getelementptr inbounds i8, ptr %3, i64 24
  %4 = load i64, ptr %size_.i, align 8
  %div6 = lshr i64 %4, 2
  %conv = trunc i64 %div6 to i32
  %data_.i = getelementptr inbounds i8, ptr %3, i64 16
  %5 = load ptr, ptr %data_.i, align 8
  %6 = load ptr, ptr %result, align 8
  %7 = tail call noundef ptr @__dynamic_cast(ptr nonnull %6, ptr nonnull @_ZTIN8facebook5velox10BaseVectorE, ptr nonnull @_ZTIN8facebook5velox10FlatVectorIiEE, i64 0) #15
  %call9 = tail call noundef ptr @_ZN8facebook5velox10FlatVectorIiE16mutableRawValuesEv(ptr noundef nonnull align 8 dereferenceable(200) %7)
  %cmp7 = icmp sgt i32 %conv, 0
  br i1 %cmp7, label %for.body.lr.ph, label %for.end

for.body.lr.ph:                                   ; preds = %entry
  %currentPeerGroupStart_ = getelementptr inbounds i8, ptr %this, i64 80
  %previousPeerCount_ = getelementptr inbounds i8, ptr %this, i64 84
  %rank_ = getelementptr inbounds i8, ptr %this, i64 88
  %8 = sext i32 %resultOffset to i64
  %wide.trip.count = and i64 %div6, 2147483647
  %invariant.gep = getelementptr i32, ptr %call9, i64 %8
  br label %for.body

for.body:                                         ; preds = %for.body.lr.ph, %if.end15
  %indvars.iv = phi i64 [ 0, %for.body.lr.ph ], [ %indvars.iv.next, %if.end15 ]
  %arrayidx = getelementptr inbounds i32, ptr %5, i64 %indvars.iv
  %9 = load i32, ptr %arrayidx, align 4
  %10 = load i32, ptr %currentPeerGroupStart_, align 8
  %cmp10.not = icmp eq i32 %9, %10
  br i1 %cmp10.not, label %if.end15, label %if.then

if.then:                                          ; preds = %for.body
  store i32 %9, ptr %currentPeerGroupStart_, align 8
  %11 = load i32, ptr %previousPeerCount_, align 4
  %cmp12 = icmp sgt i32 %11, 0
  br i1 %cmp12, label %if.then13, label %if.end

if.then13:                                        ; preds = %if.then
  %12 = load i64, ptr %rank_, align 8
  %inc = add nsw i64 %12, 1
  store i64 %inc, ptr %rank_, align 8
  br label %if.end

if.end:                                           ; preds = %if.then13, %if.then
  store i32 0, ptr %previousPeerCount_, align 4
  br label %if.end15

if.end15:                                         ; preds = %if.end, %for.body
  %13 = load i64, ptr %rank_, align 8
  %conv17 = trunc i64 %13 to i32
  %gep = getelementptr i32, ptr %invariant.gep, i64 %indvars.iv
  store i32 %conv17, ptr %gep, align 4
  %14 = load i32, ptr %previousPeerCount_, align 4
  %add21 = add nsw i32 %14, 1
  store i32 %add21, ptr %previousPeerCount_, align 4
  %indvars.iv.next = add nuw nsw i64 %indvars.iv, 1
  %exitcond.not = icmp eq i64 %indvars.iv.next, %wide.trip.count
  br i1 %exitcond.not, label %for.end, label %for.body, !llvm.loop !70

for.end:                                          ; preds = %if.end15, %entry
  ret void
}